target datalayout = "e-m:e-p270:32:32-p271:32:32-p272:64:64-i64:64-i128:128-f80:128-n8:16:32:64-S128"
target triple = "x86_64-pc-linux-gnu"

%class.elapsedTimer = type <{ i64, i64, i8, [7 x i8] }>
%class.IdealLoopTree = type <{ ptr, ptr, ptr, ptr, ptr, ptr, i32, i32, %class.Node_List, i16, i8, [5 x i8], ptr, ptr, i8, [7 x i8] }>
%class.Node_List = type <{ %class.Node_Array, i32, [4 x i8] }>
%class.Node_Array = type { ptr, i32, ptr }
%class.LoopNode = type { %class.RegionNode.base, i32, i8, float }
%class.RegionNode.base = type { %class.Node.base, i8, i32 }
%class.Node.base = type <{ ptr, ptr, ptr, i32, i32, i32, i32, i32, i32, i32 }>
%class.CountedLoopNode = type { %class.BaseCountedLoopNode, i32, i32, i32, i32, i32, [4 x i8] }
%class.BaseCountedLoopNode = type { %class.LoopNode }
%"class.Compile::TracePhase" = type <{ %class.TraceTime, ptr, ptr, ptr, i8, [7 x i8] }>
%class.TraceTime = type { i8, i8, [6 x i8], %class.elapsedTimer, ptr, ptr, ptr }
%class.VLoop = type { ptr, ptr, i8, ptr, ptr, ptr, ptr }

@LoopUnrollLimit = external global i64, align 8
@SuperWordLoopUnrollAnalysis = external global i8, align 1
@.str.4 = private unnamed_addr constant [14 x i8] c"autoVectorize\00", align 1
@_ZN5Phase6timersE = external global [54 x %class.elapsedTimer], align 16

; Function Attrs: mustprogress nounwind uwtable
define linkonce_odr hidden noundef i32 @_ZN15CountedLoopNode24node_count_before_unrollEv(ptr noundef nonnull align 8 dereferenceable(92) %0) #1 comdat align 2 {
  %2 = alloca ptr, align 8
  store ptr %0, ptr %2, align 8
  %3 = load ptr, ptr %2, align 8
  %4 = getelementptr inbounds %class.CountedLoopNode, ptr %3, i32 0, i32 4
  %5 = load i32, ptr %4, align 4
  ret i32 %5
}

; Function Attrs: mustprogress nounwind uwtable
define linkonce_odr hidden noundef i32 @_ZNK15CountedLoopNode14slp_max_unrollEv(ptr noundef nonnull align 8 dereferenceable(92) %0) #1 comdat align 2 {
  %2 = alloca ptr, align 8
  store ptr %0, ptr %2, align 8
  %3 = load ptr, ptr %2, align 8
  %4 = getelementptr inbounds %class.CountedLoopNode, ptr %3, i32 0, i32 5
  %5 = load i32, ptr %4, align 8
  ret i32 %5
}

; Function Attrs: mustprogress nounwind uwtable
define linkonce_odr hidden noundef zeroext i1 @_ZNK15CountedLoopNode14has_passed_slpEv(ptr noundef nonnull align 8 dereferenceable(92) %0) #1 comdat align 2 {
  %2 = alloca ptr, align 8
  store ptr %0, ptr %2, align 8
  %3 = load ptr, ptr %2, align 8
  %4 = getelementptr inbounds %class.LoopNode, ptr %3, i32 0, i32 1
  %5 = load i32, ptr %4, align 4
  %6 = and i32 %5, 256
  %7 = icmp eq i32 %6, 256
  ret i1 %7
}

; Function Attrs: mustprogress nounwind uwtable
define linkonce_odr hidden void @_ZN5VLoopC2EP13IdealLoopTreeb(ptr noundef nonnull align 8 dereferenceable(56) %0, ptr noundef %1, i1 noundef zeroext %2) unnamed_addr #1 comdat align 2 {
  %4 = alloca ptr, align 8
  %5 = alloca ptr, align 8
  %6 = alloca i8, align 1
  store ptr %0, ptr %4, align 8
  store ptr %1, ptr %5, align 8
  %7 = zext i1 %2 to i8
  store i8 %7, ptr %6, align 1
  %8 = load ptr, ptr %4, align 8
  %9 = getelementptr inbounds %class.VLoop, ptr %8, i32 0, i32 0
  %10 = load ptr, ptr %5, align 8
  %11 = getelementptr inbounds %class.IdealLoopTree, ptr %10, i32 0, i32 5
  %12 = load ptr, ptr %11, align 8
  store ptr %12, ptr %9, align 8
  %13 = getelementptr inbounds %class.VLoop, ptr %8, i32 0, i32 1
  %14 = load ptr, ptr %5, align 8
  store ptr %14, ptr %13, align 8
  %15 = getelementptr inbounds %class.VLoop, ptr %8, i32 0, i32 2
  %16 = load i8, ptr %6, align 1
  %17 = trunc i8 %16 to i1
  %18 = zext i1 %17 to i8
  store i8 %18, ptr %15, align 8
  %19 = getelementptr inbounds %class.VLoop, ptr %8, i32 0, i32 3
  store ptr null, ptr %19, align 8
  %20 = getelementptr inbounds %class.VLoop, ptr %8, i32 0, i32 4
  store ptr null, ptr %20, align 8
  %21 = getelementptr inbounds %class.VLoop, ptr %8, i32 0, i32 5
  store ptr null, ptr %21, align 8
  %22 = getelementptr inbounds %class.VLoop, ptr %8, i32 0, i32 6
  store ptr null, ptr %22, align 8
  ret void
}

; Function Attrs: mustprogress nounwind uwtable
define linkonce_odr hidden noundef zeroext i1 @_ZNK15CountedLoopNode16was_slp_analyzedEv(ptr noundef nonnull align 8 dereferenceable(92) %0) #1 comdat align 2 {
  %2 = alloca ptr, align 8
  store ptr %0, ptr %2, align 8
  %3 = load ptr, ptr %2, align 8
  %4 = getelementptr inbounds %class.LoopNode, ptr %3, i32 0, i32 1
  %5 = load i32, ptr %4, align 4
  %6 = and i32 %5, 128
  %7 = icmp eq i32 %6, 128
  ret i1 %7
}

; Function Attrs: mustprogress nounwind uwtable
define hidden void @_ZN13IdealLoopTree26policy_unroll_slp_analysisEP15CountedLoopNodeP14PhaseIdealLoopi(ptr noundef nonnull align 8 dereferenceable(113) %0, ptr noundef %1, ptr noundef %2, i32 noundef %3) #1 align 2 {
  %5 = alloca ptr, align 8
  %6 = alloca ptr, align 8
  %7 = alloca ptr, align 8
  %8 = alloca i32, align 4
  %9 = alloca %"class.Compile::TracePhase", align 8
  %10 = alloca %class.VLoop, align 8
  %11 = alloca i32, align 4
  %12 = alloca i32, align 4
  store ptr %0, ptr %5, align 8
  store ptr %1, ptr %6, align 8
  store ptr %2, ptr %7, align 8
  store i32 %3, ptr %8, align 4
  %13 = load ptr, ptr %5, align 8
  %14 = load i8, ptr @SuperWordLoopUnrollAnalysis, align 1
  %15 = trunc i8 %14 to i1
  br i1 %15, label %16, label %48

16:                                               ; preds = %4
  %17 = load ptr, ptr %6, align 8
  %18 = call noundef zeroext i1 @_ZNK15CountedLoopNode16was_slp_analyzedEv(ptr noundef nonnull align 8 dereferenceable(92) %17)
  br i1 %18, label %24, label %19

19:                                               ; preds = %16
  call void @_ZN7Compile10TracePhaseC1EPKcP12elapsedTimer(ptr noundef nonnull align 8 dereferenceable(81) %9, ptr noundef @.str.4, ptr noundef getelementptr inbounds ([54 x %class.elapsedTimer], ptr @_ZN5Phase6timersE, i64 0, i64 17))
  call void @_ZN5VLoopC2EP13IdealLoopTreeb(ptr noundef nonnull align 8 dereferenceable(56) %10, ptr noundef %13, i1 noundef zeroext true)
  %20 = call noundef zeroext i1 @_ZN5VLoop19check_preconditionsEv(ptr noundef nonnull align 8 dereferenceable(56) %10)
  br i1 %20, label %21, label %23

21:                                               ; preds = %19
  %22 = getelementptr inbounds %class.IdealLoopTree, ptr %13, i32 0, i32 7
  call void @_ZN9SuperWord18unrolling_analysisERK5VLoopRi(ptr noundef nonnull align 8 dereferenceable(56) %10, ptr noundef nonnull align 4 dereferenceable(4) %22)
  br label %23

23:                                               ; preds = %21, %19
  call void @_ZN7Compile10TracePhaseD1Ev(ptr noundef nonnull align 8 dereferenceable(81) %9) #8
  br label %24

24:                                               ; preds = %23, %16
  %25 = load ptr, ptr %6, align 8
  %26 = call noundef zeroext i1 @_ZNK15CountedLoopNode14has_passed_slpEv(ptr noundef nonnull align 8 dereferenceable(92) %25)
  br i1 %26, label %27, label %47

27:                                               ; preds = %24
  %28 = load ptr, ptr %6, align 8
  %29 = call noundef i32 @_ZNK15CountedLoopNode14slp_max_unrollEv(ptr noundef nonnull align 8 dereferenceable(92) %28)
  store i32 %29, ptr %11, align 4
  %30 = load i32, ptr %11, align 4
  %31 = load i32, ptr %8, align 4
  %32 = icmp sge i32 %30, %31
  br i1 %32, label %33, label %46

33:                                               ; preds = %27
  %34 = load ptr, ptr %6, align 8
  %35 = call noundef i32 @_ZN15CountedLoopNode24node_count_before_unrollEv(ptr noundef nonnull align 8 dereferenceable(92) %34)
  %36 = load i32, ptr %11, align 4
  %37 = mul nsw i32 %35, %36
  store i32 %37, ptr %12, align 4
  %38 = load i32, ptr %12, align 4
  %39 = sext i32 %38 to i64
  %40 = load i64, ptr @LoopUnrollLimit, align 8
  %41 = icmp sgt i64 %39, %40
  br i1 %41, label %42, label %45

42:                                               ; preds = %33
  %43 = load i32, ptr %12, align 4
  %44 = getelementptr inbounds %class.IdealLoopTree, ptr %13, i32 0, i32 6
  store i32 %43, ptr %44, align 8
  br label %45

45:                                               ; preds = %42, %33
  br label %46

46:                                               ; preds = %45, %27
  br label %47

47:                                               ; preds = %46, %24
  br label %48

48:                                               ; preds = %47, %4
  ret void
}