; Function Attrs: mustprogress nounwind uwtable
define hidden void @_ZN13IdealLoopTree26policy_unroll_slp_analysisEP15CountedLoopNodeP14PhaseIdealLoopi(ptr noundef nonnull align 8 dereferenceable(113) %0, ptr nocapture noundef readonly %1, ptr nocapture readnone %2, i32 noundef %3) local_unnamed_addr #0 align 2 {
  %5 = alloca %"class.Compile::TracePhase", align 8
  %6 = alloca %class.VLoop, align 8
  %7 = load i8, ptr @SuperWordLoopUnrollAnalysis, align 1
  %8 = trunc i8 %7 to i1
  br i1 %8, label %9, label %38

9:                                                ; preds = %4
  %10 = getelementptr inbounds i8, ptr %1, i64 60
  %11 = load i32, ptr %10, align 4
  %12 = and i32 %11, 128
  %.not9 = icmp eq i32 %12, 0
  br i1 %.not9, label %13, label %23

13:                                               ; preds = %9
  call void @_ZN7Compile10TracePhaseC1EPKcP12elapsedTimer(ptr noundef nonnull align 8 dereferenceable(81) %5, ptr noundef nonnull @.str.4, ptr noundef nonnull getelementptr inbounds (i8, ptr @_ZN5Phase6timersE, i64 408)) #11
  %14 = getelementptr inbounds i8, ptr %0, i64 40
  %15 = load ptr, ptr %14, align 8
  store ptr %15, ptr %6, align 8
  %16 = getelementptr inbounds i8, ptr %6, i64 8
  store ptr %0, ptr %16, align 8
  %17 = getelementptr inbounds i8, ptr %6, i64 16
  store i8 1, ptr %17, align 8
  %18 = getelementptr inbounds i8, ptr %6, i64 24
  call void @llvm.memset.p0.i64(ptr noundef nonnull align 8 dereferenceable(32) %18, i8 0, i64 32, i1 false)
  %19 = call noundef zeroext i1 @_ZN5VLoop19check_preconditionsEv(ptr noundef nonnull align 8 dereferenceable(56) %6) #11
  br i1 %19, label %20, label %22

20:                                               ; preds = %13
  %21 = getelementptr inbounds i8, ptr %0, i64 52
  call void @_ZN9SuperWord18unrolling_analysisERK5VLoopRi(ptr noundef nonnull align 8 dereferenceable(56) %6, ptr noundef nonnull align 4 dereferenceable(4) %21) #11
  br label %22

22:                                               ; preds = %20, %13
  call void @_ZN7Compile10TracePhaseD1Ev(ptr noundef nonnull align 8 dereferenceable(81) %5) #11
  %.pre = load i32, ptr %10, align 4
  br label %23

23:                                               ; preds = %22, %9
  %24 = phi i32 [ %.pre, %22 ], [ %11, %9 ]
  %25 = and i32 %24, 256
  %.not10 = icmp eq i32 %25, 0
  br i1 %.not10, label %38, label %26

26:                                               ; preds = %23
  %27 = getelementptr inbounds i8, ptr %1, i64 88
  %28 = load i32, ptr %27, align 8
  %.not = icmp slt i32 %28, %3
  br i1 %.not, label %38, label %29

29:                                               ; preds = %26
  %30 = getelementptr inbounds i8, ptr %1, i64 84
  %31 = load i32, ptr %30, align 4
  %32 = mul nsw i32 %31, %28
  %33 = sext i32 %32 to i64
  %34 = load i64, ptr @LoopUnrollLimit, align 8
  %35 = icmp slt i64 %34, %33
  br i1 %35, label %36, label %38

36:                                               ; preds = %29
  %37 = getelementptr inbounds i8, ptr %0, i64 48
  store i32 %32, ptr %37, align 8
  br label %38

38:                                               ; preds = %23, %29, %36, %26, %4
  ret void
}